; Function Attrs: nounwind uwtable
define ptr @l_Lean_Widget_SubexprInfo_withDiffTag(i8 noundef zeroext %0, ptr noundef %1) local_unnamed_addr #1 {
  %.val = load i32, ptr %1, align 4, !tbaa !4
  %3 = icmp eq i32 %.val, 1
  br i1 %3, label %4, label %25

4:                                                ; preds = %2
  %5 = getelementptr inbounds nuw i8, ptr %1, i64 24
  %6 = load ptr, ptr %5, align 8, !tbaa !10
  %7 = ptrtoint ptr %6 to i64
  %8 = and i64 %7, 1
  %.not37 = icmp eq i64 %8, 0
  br i1 %.not37, label %9, label %lean_dec.exit25

9:                                                ; preds = %4
  %10 = load i32, ptr %6, align 4, !tbaa !4
  %11 = icmp sgt i32 %10, 1
  br i1 %11, label %12, label %14, !prof !9

12:                                               ; preds = %9
  %13 = add nsw i32 %10, -1
  store i32 %13, ptr %6, align 4, !tbaa !4
  br label %lean_dec.exit25

14:                                               ; preds = %9
  %.not.i = icmp eq i32 %10, 0
  br i1 %.not.i, label %lean_dec.exit25, label %15

15:                                               ; preds = %14
  tail call void @lean_dec_ref_cold(ptr noundef nonnull %6) #8
  br label %lean_dec.exit25

lean_dec.exit25:                                  ; preds = %15, %14, %12, %4
  tail call void @lean_inc_heartbeat() #8
  %16 = tail call noalias ptr @mi_malloc_small(i64 noundef 16) #8
  %17 = icmp eq ptr %16, null
  br i1 %17, label %18, label %lean_alloc_ctor.exit

18:                                               ; preds = %lean_dec.exit25
  tail call void @lean_internal_panic_out_of_memory() #9
  unreachable

lean_alloc_ctor.exit:                             ; preds = %lean_dec.exit25
  %19 = zext i8 %0 to i64
  %20 = shl nuw nsw i64 %19, 1
  %21 = or disjoint i64 %20, 1
  %22 = inttoptr i64 %21 to ptr
  %23 = getelementptr inbounds nuw i8, ptr %16, i64 4
  store i32 1, ptr %16, align 4, !tbaa !4
  store i32 16842768, ptr %23, align 4
  %24 = getelementptr inbounds nuw i8, ptr %16, i64 8
  store ptr %22, ptr %24, align 8, !tbaa !10
  store ptr %16, ptr %5, align 8, !tbaa !10
  br label %71

25:                                               ; preds = %2
  %26 = getelementptr inbounds nuw i8, ptr %1, i64 8
  %27 = load ptr, ptr %26, align 8, !tbaa !10
  %28 = getelementptr inbounds nuw i8, ptr %1, i64 16
  %29 = load ptr, ptr %28, align 8, !tbaa !10
  %30 = ptrtoint ptr %29 to i64
  %31 = and i64 %30, 1
  %.not = icmp eq i64 %31, 0
  br i1 %.not, label %32, label %lean_inc.exit26

32:                                               ; preds = %25
  %.val.i = load i32, ptr %29, align 4, !tbaa !4
  %33 = icmp sgt i32 %.val.i, 0
  br i1 %33, label %34, label %36, !prof !9

34:                                               ; preds = %32
  %35 = add nuw i32 %.val.i, 1
  store i32 %35, ptr %29, align 4, !tbaa !4
  br label %lean_inc.exit26

36:                                               ; preds = %32
  %.not.i29 = icmp eq i32 %.val.i, 0
  br i1 %.not.i29, label %lean_inc.exit26, label %37

37:                                               ; preds = %36
  tail call void @lean_inc_ref_cold(ptr noundef nonnull %29) #8
  br label %lean_inc.exit26

lean_inc.exit26:                                  ; preds = %37, %36, %34, %25
  %38 = ptrtoint ptr %27 to i64
  %39 = and i64 %38, 1
  %.not35 = icmp eq i64 %39, 0
  br i1 %.not35, label %40, label %lean_inc.exit

40:                                               ; preds = %lean_inc.exit26
  %.val.i30 = load i32, ptr %27, align 4, !tbaa !4
  %41 = icmp sgt i32 %.val.i30, 0
  br i1 %41, label %42, label %44, !prof !9

42:                                               ; preds = %40
  %43 = add nuw i32 %.val.i30, 1
  store i32 %43, ptr %27, align 4, !tbaa !4
  br label %lean_inc.exit

44:                                               ; preds = %40
  %.not.i31 = icmp eq i32 %.val.i30, 0
  br i1 %.not.i31, label %lean_inc.exit, label %45

45:                                               ; preds = %44
  tail call void @lean_inc_ref_cold(ptr noundef nonnull %27) #8
  br label %lean_inc.exit

lean_inc.exit:                                    ; preds = %45, %44, %42, %lean_inc.exit26
  %46 = ptrtoint ptr %1 to i64
  %47 = and i64 %46, 1
  %.not36 = icmp eq i64 %47, 0
  br i1 %.not36, label %48, label %lean_dec.exit

48:                                               ; preds = %lean_inc.exit
  %49 = load i32, ptr %1, align 4, !tbaa !4
  %50 = icmp sgt i32 %49, 1
  br i1 %50, label %51, label %53, !prof !9

51:                                               ; preds = %48
  %52 = add nsw i32 %49, -1
  store i32 %52, ptr %1, align 4, !tbaa !4
  br label %lean_dec.exit

53:                                               ; preds = %48
  %.not.i27 = icmp eq i32 %49, 0
  br i1 %.not.i27, label %lean_dec.exit, label %54

54:                                               ; preds = %53
  tail call void @lean_dec_ref_cold(ptr noundef nonnull %1) #8
  br label %lean_dec.exit

lean_dec.exit:                                    ; preds = %54, %53, %51, %lean_inc.exit
  tail call void @lean_inc_heartbeat() #8
  %55 = tail call noalias ptr @mi_malloc_small(i64 noundef 16) #8
  %56 = icmp eq ptr %55, null
  br i1 %56, label %57, label %lean_alloc_ctor.exit33

57:                                               ; preds = %lean_dec.exit
  tail call void @lean_internal_panic_out_of_memory() #9
  unreachable

lean_alloc_ctor.exit33:                           ; preds = %lean_dec.exit
  %58 = zext i8 %0 to i64
  %59 = shl nuw nsw i64 %58, 1
  %60 = or disjoint i64 %59, 1
  %61 = inttoptr i64 %60 to ptr
  %62 = getelementptr inbounds nuw i8, ptr %55, i64 4
  store i32 1, ptr %55, align 4, !tbaa !4
  store i32 16842768, ptr %62, align 4
  %63 = getelementptr inbounds nuw i8, ptr %55, i64 8
  store ptr %61, ptr %63, align 8, !tbaa !10
  tail call void @lean_inc_heartbeat() #8
  %64 = tail call noalias ptr @mi_malloc_small(i64 noundef 32) #8
  %65 = icmp eq ptr %64, null
  br i1 %65, label %66, label %lean_alloc_ctor.exit34

66:                                               ; preds = %lean_alloc_ctor.exit33
  tail call void @lean_internal_panic_out_of_memory() #9
  unreachable

lean_alloc_ctor.exit34:                           ; preds = %lean_alloc_ctor.exit33
  %67 = getelementptr inbounds nuw i8, ptr %64, i64 4
  store i32 1, ptr %64, align 4, !tbaa !4
  store i32 196640, ptr %67, align 4
  %68 = getelementptr inbounds nuw i8, ptr %64, i64 8
  store ptr %27, ptr %68, align 8, !tbaa !10
  %69 = getelementptr inbounds nuw i8, ptr %64, i64 16
  store ptr %29, ptr %69, align 8, !tbaa !10
  %70 = getelementptr inbounds nuw i8, ptr %64, i64 24
  store ptr %55, ptr %70, align 8, !tbaa !10
  br label %71

71:                                               ; preds = %lean_alloc_ctor.exit34, %lean_alloc_ctor.exit
  %.0 = phi ptr [ %1, %lean_alloc_ctor.exit ], [ %64, %lean_alloc_ctor.exit34 ]
  ret ptr %.0
}